target datalayout = "e-m:e-p270:32:32-p271:32:32-p272:64:64-i64:64-i128:128-f80:128-n8:16:32:64-S128"
target triple = "x86_64-pc-linux-gnu"

%class.JVMCINMethodData = type { i8, i32, i32, ptr }

@.str = private unnamed_addr constant [41 x i8] c"src/hotspot/share/jvmci/jvmciRuntime.cpp\00", align 1
@g_assert_poison = external global ptr, align 8
@.str.22 = private unnamed_addr constant [51 x i8] c"guarantee(nmethod_entry_patch_offset != -1) failed\00", align 1
@.str.23 = private unnamed_addr constant [22 x i8] c"missing entry barrier\00", align 1

; Function Attrs: mustprogress nounwind uwtable
define hidden void @_ZN16JVMCINMethodData10initializeEiiPKcPP17FailedSpeculation(ptr noundef nonnull align 8 dereferenceable(24) %0, i32 noundef %1, i32 noundef %2, ptr noundef %3, ptr noundef %4) #1 align 2 {
  %6 = alloca ptr, align 8
  %7 = alloca i32, align 4
  %8 = alloca i32, align 4
  %9 = alloca ptr, align 8
  %10 = alloca ptr, align 8
  %11 = alloca ptr, align 8
  store ptr %0, ptr %6, align 8
  store i32 %1, ptr %7, align 4
  store i32 %2, ptr %8, align 4
  store ptr %3, ptr %9, align 8
  store ptr %4, ptr %10, align 8
  %12 = load ptr, ptr %6, align 8
  %13 = load ptr, ptr %10, align 8
  %14 = getelementptr inbounds %class.JVMCINMethodData, ptr %12, i32 0, i32 3
  store ptr %13, ptr %14, align 8
  %15 = load i32, ptr %7, align 4
  %16 = getelementptr inbounds %class.JVMCINMethodData, ptr %12, i32 0, i32 1
  store i32 %15, ptr %16, align 4
  br label %17

17:                                               ; preds = %5
  %18 = load i32, ptr %8, align 4
  %19 = icmp ne i32 %18, -1
  br i1 %19, label %22, label %20

20:                                               ; preds = %17
  %21 = load ptr, ptr @g_assert_poison, align 8
  store i8 88, ptr %21, align 1
  call void (ptr, i32, ptr, ptr, ...) @_Z15report_vm_errorPKciS0_S0_z(ptr noundef @.str, i32 noundef 762, ptr noundef @.str.22, ptr noundef @.str.23) #13
  unreachable

22:                                               ; preds = %17
  br label %23

23:                                               ; preds = %22
  %24 = load i32, ptr %8, align 4
  %25 = getelementptr inbounds %class.JVMCINMethodData, ptr %12, i32 0, i32 2
  store i32 %24, ptr %25, align 8
  %26 = load ptr, ptr %9, align 8
  %27 = icmp ne ptr %26, null
  br i1 %27, label %28, label %34

28:                                               ; preds = %23
  %29 = getelementptr inbounds %class.JVMCINMethodData, ptr %12, i32 0, i32 0
  store i8 1, ptr %29, align 8
  %30 = call noundef ptr @_ZN16JVMCINMethodData4nameEv(ptr noundef nonnull align 8 dereferenceable(24) %12)
  store ptr %30, ptr %11, align 8
  %31 = load ptr, ptr %11, align 8
  %32 = load ptr, ptr %9, align 8
  %33 = call ptr @strcpy(ptr noundef %31, ptr noundef %32) #11
  br label %36

34:                                               ; preds = %23
  %35 = getelementptr inbounds %class.JVMCINMethodData, ptr %12, i32 0, i32 0
  store i8 0, ptr %35, align 8
  br label %36

36:                                               ; preds = %34, %28
  ret void
}

; Function Attrs: mustprogress nounwind uwtable
define linkonce_odr hidden noundef ptr @_ZN16JVMCINMethodData4nameEv(ptr noundef nonnull align 8 dereferenceable(24) %0) #1 comdat align 2 {
  %2 = alloca ptr, align 8
  store ptr %0, ptr %2, align 8
  %3 = load ptr, ptr %2, align 8
  %4 = getelementptr inbounds %class.JVMCINMethodData, ptr %3, i32 0, i32 0
  %5 = load i8, ptr %4, align 8
  %6 = trunc i8 %5 to i1
  br i1 %6, label %7, label %9

7:                                                ; preds = %1
  %8 = getelementptr inbounds i8, ptr %3, i64 24
  br label %10

9:                                                ; preds = %1
  br label %10

10:                                               ; preds = %9, %7
  %11 = phi ptr [ %8, %7 ], [ null, %9 ]
  ret ptr %11
}

; Function Attrs: mustprogress nounwind uwtable
define hidden void @_ZN16JVMCINMethodData4copyEPS_(ptr noundef nonnull align 8 dereferenceable(24) %0, ptr noundef %1) #1 align 2 {
  %3 = alloca ptr, align 8
  %4 = alloca ptr, align 8
  store ptr %0, ptr %3, align 8
  store ptr %1, ptr %4, align 8
  %5 = load ptr, ptr %3, align 8
  %6 = load ptr, ptr %4, align 8
  %7 = getelementptr inbounds %class.JVMCINMethodData, ptr %6, i32 0, i32 1
  %8 = load i32, ptr %7, align 4
  %9 = load ptr, ptr %4, align 8
  %10 = getelementptr inbounds %class.JVMCINMethodData, ptr %9, i32 0, i32 2
  %11 = load i32, ptr %10, align 8
  %12 = load ptr, ptr %4, align 8
  %13 = call noundef ptr @_ZN16JVMCINMethodData4nameEv(ptr noundef nonnull align 8 dereferenceable(24) %12)
  %14 = load ptr, ptr %4, align 8
  %15 = getelementptr inbounds %class.JVMCINMethodData, ptr %14, i32 0, i32 3
  %16 = load ptr, ptr %15, align 8
  call void @_ZN16JVMCINMethodData10initializeEiiPKcPP17FailedSpeculation(ptr noundef nonnull align 8 dereferenceable(24) %5, i32 noundef %8, i32 noundef %11, ptr noundef %13, ptr noundef %16)
  ret void
}