; Function Attrs: mustprogress nounwind uwtable
define hidden void @_ZN16JVMCINMethodData4copyEPS_(ptr noundef nonnull align 8 dereferenceable(24) %0, ptr nocapture noundef readonly %1) local_unnamed_addr #0 align 2 {
  %3 = getelementptr inbounds i8, ptr %1, i64 4
  %4 = load i32, ptr %3, align 4
  %5 = getelementptr inbounds i8, ptr %1, i64 8
  %6 = load i32, ptr %5, align 8
  %7 = load i8, ptr %1, align 8
  %8 = getelementptr inbounds i8, ptr %1, i64 24
  %9 = getelementptr inbounds i8, ptr %1, i64 16
  %10 = load ptr, ptr %9, align 8
  %11 = getelementptr inbounds i8, ptr %0, i64 16
  store ptr %10, ptr %11, align 8
  %12 = getelementptr inbounds i8, ptr %0, i64 4
  store i32 %4, ptr %12, align 4
  %.not.i = icmp eq i32 %6, -1
  br i1 %.not.i, label %13, label %15

13:                                               ; preds = %2
  %14 = load ptr, ptr @g_assert_poison, align 8
  store i8 88, ptr %14, align 1
  tail call void (ptr, i32, ptr, ptr, ...) @_Z15report_vm_errorPKciS0_S0_z(ptr noundef nonnull @.str, i32 noundef 762, ptr noundef nonnull @.str.22, ptr noundef nonnull @.str.23) #17
  unreachable

15:                                               ; preds = %2
  %16 = trunc i8 %7 to i1
  %17 = getelementptr inbounds i8, ptr %0, i64 8
  store i32 %6, ptr %17, align 8
  br i1 %16, label %18, label %21

18:                                               ; preds = %15
  store i8 1, ptr %0, align 8
  %19 = getelementptr inbounds i8, ptr %0, i64 24
  %20 = tail call ptr @strcpy(ptr noundef nonnull dereferenceable(1) %19, ptr noundef nonnull readonly dereferenceable(1) %8) #15
  br label %_ZN16JVMCINMethodData10initializeEiiPKcPP17FailedSpeculation.exit

21:                                               ; preds = %15
  store i8 0, ptr %0, align 8
  br label %_ZN16JVMCINMethodData10initializeEiiPKcPP17FailedSpeculation.exit

_ZN16JVMCINMethodData10initializeEiiPKcPP17FailedSpeculation.exit: ; preds = %18, %21
  ret void
}